target datalayout = "e-m:e-p270:32:32-p271:32:32-p272:64:64-i64:64-i128:128-f80:128-n8:16:32:64-S128"
target triple = "x86_64-pc-linux-gnu"

%struct.H5P_genplist_t = type { ptr, i64, i64, i8, ptr, ptr }
%struct.H5P_iter_plist_ud_t = type { ptr, ptr, ptr, ptr, ptr, i32 }

@H5P_init_g = external global i8, align 1
@H5_libterm_g = external global i8, align 1

; Function Attrs: nounwind uwtable
define internal i32 @H5P__iterate_plist_pclass_cb(ptr noundef %0, ptr noundef %1, ptr noundef %2) #0 {
  %4 = alloca ptr, align 8
  %5 = alloca ptr, align 8
  %6 = alloca ptr, align 8
  %7 = alloca ptr, align 8
  %8 = alloca ptr, align 8
  %9 = alloca ptr, align 8
  %10 = alloca i32, align 4
  store ptr %0, ptr %4, align 8, !tbaa !40
  store ptr %1, ptr %5, align 8, !tbaa !40
  store ptr %2, ptr %6, align 8, !tbaa !40
  call void @llvm.lifetime.start.p0(i64 8, ptr %7) #8
  %11 = load ptr, ptr %4, align 8, !tbaa !40
  store ptr %11, ptr %7, align 8, !tbaa !68
  call void @llvm.lifetime.start.p0(i64 8, ptr %8) #8
  %12 = load ptr, ptr %5, align 8, !tbaa !40
  store ptr %12, ptr %8, align 8, !tbaa !39
  call void @llvm.lifetime.start.p0(i64 8, ptr %9) #8
  %13 = load ptr, ptr %6, align 8, !tbaa !40
  store ptr %13, ptr %9, align 8, !tbaa !40
  call void @llvm.lifetime.start.p0(i64 4, ptr %10) #8
  store i32 0, ptr %10, align 4, !tbaa !3
  %14 = load i8, ptr @H5P_init_g, align 1, !tbaa !7, !range !9, !noundef !10
  %15 = trunc i8 %14 to i1
  br i1 %15, label %20, label %16

16:                                               ; preds = %3
  %17 = load i8, ptr @H5_libterm_g, align 1, !tbaa !7, !range !9, !noundef !10
  %18 = trunc i8 %17 to i1
  %19 = xor i1 %18, true
  br label %20

20:                                               ; preds = %16, %3
  %21 = phi i1 [ true, %3 ], [ %19, %16 ]
  %22 = xor i1 %21, true
  %23 = xor i1 %22, true
  %24 = zext i1 %23 to i32
  %25 = sext i32 %24 to i64
  %26 = call i64 @llvm.expect.i64(i64 %25, i64 1)
  %27 = icmp ne i64 %26, 0
  br i1 %27, label %28, label %50

28:                                               ; preds = %20
  %29 = load ptr, ptr %9, align 8, !tbaa !40
  %30 = getelementptr inbounds nuw %struct.H5P_iter_plist_ud_t, ptr %29, i32 0, i32 3
  %31 = load ptr, ptr %30, align 8, !tbaa !122
  %32 = load ptr, ptr %8, align 8, !tbaa !39
  %33 = call ptr @H5SL_search(ptr noundef %31, ptr noundef %32)
  %34 = icmp eq ptr null, %33
  br i1 %34, label %35, label %49

35:                                               ; preds = %28
  %36 = load ptr, ptr %9, align 8, !tbaa !40
  %37 = getelementptr inbounds nuw %struct.H5P_iter_plist_ud_t, ptr %36, i32 0, i32 2
  %38 = load ptr, ptr %37, align 8, !tbaa !118
  %39 = getelementptr inbounds nuw %struct.H5P_genplist_t, ptr %38, i32 0, i32 4
  %40 = load ptr, ptr %39, align 8, !tbaa !80
  %41 = load ptr, ptr %8, align 8, !tbaa !39
  %42 = call ptr @H5SL_search(ptr noundef %40, ptr noundef %41)
  %43 = icmp eq ptr null, %42
  br i1 %43, label %44, label %49

44:                                               ; preds = %35
  %45 = load ptr, ptr %7, align 8, !tbaa !68
  %46 = load ptr, ptr %8, align 8, !tbaa !39
  %47 = load ptr, ptr %9, align 8, !tbaa !40
  %48 = call i32 @H5P__iterate_plist_cb(ptr noundef %45, ptr noundef %46, ptr noundef %47)
  store i32 %48, ptr %10, align 4, !tbaa !3
  br label %49

49:                                               ; preds = %44, %35, %28
  br label %50

50:                                               ; preds = %49, %20
  %51 = load i32, ptr %10, align 4, !tbaa !3
  call void @llvm.lifetime.end.p0(i64 4, ptr %10) #8
  call void @llvm.lifetime.end.p0(i64 8, ptr %9) #8
  call void @llvm.lifetime.end.p0(i64 8, ptr %8) #8
  call void @llvm.lifetime.end.p0(i64 8, ptr %7) #8
  ret i32 %51
}