; Function Attrs: nounwind uwtable
define internal i32 @H5P__iterate_plist_pclass_cb(ptr noundef %0, ptr noundef %1, ptr noundef readonly captures(none) %2) #0 {
  %4 = load i8, ptr @H5P_init_g, align 1, !tbaa !3, !range !7, !noundef !8
  %5 = trunc nuw i8 %4 to i1
  %6 = load i8, ptr @H5_libterm_g, align 1, !range !7
  %7 = trunc nuw i8 %6 to i1
  %8 = xor i1 %7, true
  %9 = select i1 %5, i1 true, i1 %8
  br i1 %9, label %10, label %24, !prof !9

10:                                               ; preds = %3
  %11 = getelementptr inbounds nuw i8, ptr %2, i64 24
  %12 = load ptr, ptr %11, align 8, !tbaa !110
  %13 = tail call ptr @H5SL_search(ptr noundef %12, ptr noundef %1) #14
  %14 = icmp eq ptr %13, null
  br i1 %14, label %15, label %24

15:                                               ; preds = %10
  %16 = getelementptr inbounds nuw i8, ptr %2, i64 16
  %17 = load ptr, ptr %16, align 8, !tbaa !105
  %18 = getelementptr inbounds nuw i8, ptr %17, i64 32
  %19 = load ptr, ptr %18, align 8, !tbaa !59
  %20 = tail call ptr @H5SL_search(ptr noundef %19, ptr noundef %1) #14
  %21 = icmp eq ptr %20, null
  br i1 %21, label %22, label %24

22:                                               ; preds = %15
  %23 = tail call i32 @H5P__iterate_plist_cb(ptr noundef %0, ptr noundef %1, ptr noundef nonnull %2)
  br label %24

24:                                               ; preds = %10, %15, %22, %3
  %.0 = phi i32 [ %23, %22 ], [ 0, %15 ], [ 0, %10 ], [ 0, %3 ]
  ret i32 %.0
}